(lp0
F4.067226890756302
aF4.22436974789916
aF4.63921568627451
aF3.938655462184874
aF4.435574229691877
aF4.122408963585434
aF4.203361344537815
aF4.075070028011204
aF4.226610644257703
aF4.290756302521008
aF4.017927170868347
aF4.033333333333333
aF3.8792717086834734
aF4.025770308123249
aF4.063305322128851
aF4.644257703081233
aF4.007282913165266
aF4.3733893557422965
aF4.109523809523809
aF4.426330532212885
aF4.254341736694678
aF3.6515406162464985
aF4.629131652661065
aF3.895238095238095
aF3.953781512605042
aF4.127731092436975
aF3.8487394957983194
aF4.157422969187675
aF3.872268907563025
aF3.9324929971988793
aF3.8492997198879553
aF4.032492997198879
aF4.344817927170868
aF4.017927170868347
aF4.058543417366947
aF4.066106442577031
aF3.9602240896358545
aF4.389355742296919
aF4.321288515406162
aF4.101680672268907
aF4.158543417366947
aF4.523809523809524
aF4.115966386554621
aF4.295798319327731
aF4.113725490196078
aF4.607002801120448
aF4.403641456582633
aF4.253501400560224
aF4.084593837535014
aF3.991596638655462
aF4.2064425770308125
aF4.26078431372549
aF3.9871148459383754
aF4.287955182072829
aF4.231372549019608
aF3.8904761904761904
aF4.397759103641457
aF4.248739495798319
aF4.060224089635854
aF4.041456582633053
aF4.678711484593838
aF4.199439775910364
aF4.526330532212885
aF4.619047619047619
aF4.1644257703081236
aF4.208963585434174
aF3.9011204481792716
aF4.078431372549019
aF4.183193277310925
aF4.542857142857143
aF3.9761904761904763
aF4.3655462184873945
aF4.213725490196079
aF4.03781512605042
aF4.020168067226891
aF3.8719887955182073
aF4.257703081232493
aF4.194397759103642
aF4.385994397759104
aF3.9717086834733895
aF4.07563025210084
aF3.76218487394958
aF4.180112044817927
aF3.934453781512605
aF4.176470588235294
aF3.943697478991597
aF4.266106442577031
aF4.295238095238095
aF3.9901960784313726
aF3.866106442577031
aF4.208403361344538
aF4.043137254901961
aF4.13389355742297
aF4.094397759103641
aF4.147899159663866
aF4.006162464985994
aF4.102801120448179
aF4.389915966386555
aF3.8714285714285714
aF4.032492997198879
aF4.494957983193277
aF4.233333333333333
aF3.9711484593837536
aF4.377591036414566
aF4.402240896358544
aF4.045658263305322
aF3.8400560224089637
aF4.370868347338935
aF4.16890756302521
aF4.0397759103641455
aF3.82436974789916
aF4.019607843137255
aF4.26750700280112
aF4.1380952380952385
aF4.322689075630252
aF4.50812324929972
aF4.142577030812325
aF4.422689075630252
aF3.84733893557423
aF3.933333333333333
aF3.9277310924369746
aF4.172549019607843
aF4.149859943977591
aF4.443697478991597
aF3.958823529411765
aF3.965826330532213
aF4.813725490196078
aF4.157983193277311
aF3.661624649859944
aF4.3619047619047615
aF4.107843137254902
aF4.135574229691877
aF4.424089635854342
aF3.918487394957983
aF4.3011204481792715
aF4.241456582633053
aF4.278151260504202
aF4.115966386554621
aF4.658263305322129
aF4.017927170868347
aF4.200280112044818
aF4.3428571428571425
aF4.307002801120448
aF4.324369747899159
aF4.448459383753502
aF4.219047619047619
aF4.235294117647059
aF4.029411764705882
aF4.0703081232492995
aF4.086274509803921
aF4.35406162464986
aF4.2327731092436975
aF4.515686274509804
aF4.098039215686274
aF4.50672268907563
aF4.470028011204482
aF4.334733893557423
aF4.279551820728291
aF4.360504201680672
aF4.155182072829132
aF4.450140056022409
aF4.186834733893558
aF4.124649859943977
aF4.301960784313725
aF4.190196078431373
aF4.593557422969187
aF4.326050420168067
aF3.9274509803921567
aF4.07563025210084
aF4.375630252100841
aF4.247619047619048
aF4.019047619047619
aF4.008683473389356
aF4.476750700280112
aF4.338095238095238
aF4.409803921568628
aF4.241736694677871
aF3.8714285714285714
aF4.317647058823529
aF4.208683473389356
aF4.2557422969187675
aF3.984593837535014
aF4.068067226890756
aF4.3504201680672265
aF4.224929971988796
aF4.68515406162465
aF4.101960784313725
aF4.452100840336135
aF3.9971988795518207
aF4.0322128851540615
aF4.021848739495798
aF4.184033613445378
aF4.033613445378151
aF4.41624649859944
aF4.149859943977591
aF4.090196078431372
aF4.407843137254902
aF3.9495798319327733
aF4.0207282913165265
aF4.405322128851541
aF3.9159663865546217
aF4.092156862745098
aF3.595798319327731
aF4.100280112044818
aF4.483473389355742
aF3.9210084033613444
aF4.855462184873949
aF4.133053221288516
aF4.368067226890756
aF3.99187675070028
aF4.489915966386555
aF3.966386554621849
aF4.173669467787115
aF3.846498599439776
aF3.9675070028011206
aF4.035294117647059
aF3.9837535014005603
aF4.322128851540616
aF4.009243697478992
aF3.9453781512605044
aF4.46078431372549
aF4.018207282913165
aF4.073669467787115
aF4.102240896358543
aF4.2327731092436975
aF4.009803921568627
aF4.212044817927171
aF4.35126050420168
aF4.461624649859944
aF4.845098039215686
aF4.2103641456582634
aF4.315686274509804
aF4.515126050420168
aF3.90672268907563
aF3.9610644257703083
aF4.175350140056023
aF4.5285714285714285
aF4.298319327731092
aF4.15546218487395
aF4.025210084033613
aF4.044257703081232
aF3.980392156862745
aF4.085714285714285
aF4.371988795518207
aF4.482072829131653
aF4.243137254901961
aF4.117086834733893
aF4.025770308123249
aF4.1759103641456585
aF4.126330532212886
aF4.534733893557423
aF4.104761904761904
aF4.173669467787115
aF4.038095238095238
aF4.075350140056022
aF3.9411764705882355
aF3.9638655462184875
aF3.9910364145658264
aF3.7633053221288515
aF3.8971988795518206
aF4.406442577030813
aF3.9829131652661065
aF4.045098039215686
aF4.362464985994397
aF3.816526610644258
aF4.103361344537815
aF4.068067226890756
aF3.950140056022409
aF4.348179271708683
aF4.066666666666666
aF3.996918767507003
aF4.094397759103641
aF4.29327731092437
aF4.157422969187675
aF3.820728291316527
aF4.045098039215686
aF3.8448179271708685
aF3.942857142857143
aF4.269467787114846
aF4.615406162464986
aF4.294957983193277
aF4.234173669467787
aF4.2593837535014005
aF4.235854341736695
aF4.317086834733893
aF3.954341736694678
aF3.9322128851540614
aF4.131652661064426
aF4.215126050420168
aF4.113165266106442
aF4.073389355742297
aF4.496358543417367
aF4.273109243697479
aF4.2406162464985995
aF4.2103641456582634
aF4.34593837535014
aF4.345098039215686
aF4.12577030812325
aF4.431652661064426
aF4.101960784313725
aF4.325490196078431
aF4.320448179271708
aF4.313725490196078
aF4.060504201680672
aF4.12156862745098
aF3.915126050420168
aF4.444537815126051
aF4.636134453781513
aF4.32156862745098
aF4.06078431372549
aF3.6879551820728294
aF3.7630252100840336
aF3.891596638655462
aF4.035014005602241
aF4.370028011204481
aF3.958263305322129
aF3.9044817927170867
aF3.9862745098039216
aF3.926050420168067
aF4.197759103641457
aF4.0397759103641455
aF4.474789915966387
aF4.1532212885154065
aF4.421288515406163
aF4.159383753501401
aF4.242857142857143
aF4.161904761904762
aF4.412044817927171
aF4.2103641456582634
aF4.0473389355742295
aF4.043977591036414
aF4.190756302521009
aF4.3011204481792715
aF4.218207282913165
aF4.201960784313726
aF4.064705882352941
aF4.006442577030812
aF3.957703081232493
aF3.877310924369748
aF4.121848739495798
aF4.2140056022408965
aF4.0285714285714285
aF4.669747899159664
aF3.8554621848739496
aF4.031372549019608
aF3.9563025210084035
aF4.332492997198879
aF4.426330532212885
aF4.475910364145658
aF4.618487394957983
aF3.6700280112044816
aF4.386834733893558
aF3.839775910364146
aF4.413165266106443
aF4.3733893557422965
aF4.357703081232493
aF4.32296918767507
aF4.419607843137255
aF4.107563025210084
aF3.965546218487395
aF4.288235294117647
aF3.720168067226891
aF4.294117647058823
aF3.580952380952381
aF4.615966386554621
aF3.969747899159664
aF4.083193277310924
aF4.5246498599439775
aF4.189075630252101
aF3.9532212885154063
aF4.372268907563025
aF4.080112044817927
aF4.266666666666667
aF3.9271708683473388
aF3.9725490196078432
aF4.1044817927170865
aF3.9053221288515405
aF3.850700280112045
aF4.169187675070028
aF4.768067226890756
aF4.048739495798319
aF4.10672268907563
aF3.9596638655462186
aF4.043137254901961
aF4.097759103641456
aF4.061344537815126
aF4.288235294117647
aF4.704761904761905
aF4.105882352941176
aF3.9829131652661065
aF4.3619047619047615
aF4.012324929971989
aF4.112324929971988
aF3.965266106442577
aF4.0703081232492995
aF4.142577030812325
aF4.6703081232493
aF4.151820728291317
aF4.461904761904762
aF4.05406162464986
aF3.835854341736695
aF4.011764705882353
aF3.9602240896358545
aF4.00672268907563
aF4.375350140056023
aF4.315966386554622
aF4.792717086834734
aF4.383193277310925
aF4.0282913165266105
aF4.310364145658263
aF4.385994397759104
aF3.8929971988795518
aF4.053781512605042
aF4.075910364145658
aF3.9705882352941178
aF3.8226890756302523
aF3.7599439775910364
aF4.577310924369748
aF3.877591036414566
aF4.200280112044818
aF3.9781512605042018
aF3.923249299719888
aF3.987955182072829
aF3.97703081232493
aF4.066106442577031
aF3.830532212885154
aF4.2935574229691875
aF3.9196078431372547
aF4.200560224089636
aF3.962464985994398
aF4.009243697478992
aF4.434173669467787
aF4.261904761904762
aF4.084593837535014
aF3.8557422969187676
aF4.418207282913166
aF4.695518207282913
aF3.9201680672268906
aF4.190196078431373
aF3.7560224089635854
aF4.17703081232493
aF3.799159663865546
aF4.158543417366947
aF4.112605042016806
aF4.120728291316526
aF4.388515406162465
aF4.212885154061625
aF4.050420168067227
aF4.222689075630252
aF3.900280112044818
aF4.02296918767507
aF3.973109243697479
aF4.219607843137255
aF3.995518207282913
aF4.3011204481792715
aF4.146218487394958
aF3.914565826330532
aF3.976750700280112
aF4.452100840336135
aF4.390756302521009
aF4.1703081232493
aF4.200560224089636
aF4.211484593837535
aF4.177310924369748
aF4.534453781512605
aF4.355462184873949
aF4.143417366946779
aF4.034453781512605
aF4.104761904761904
aF3.9932773109243698
aF4.4714285714285715
aF4.288795518207283
aF4.032773109243697
aF4.347338935574229
aF4.6834733893557425
aF4.152100840336135
aF3.926330532212885
aF4.187955182072829
aF4.070868347338935
aF4.0134453781512605
aF4.29859943977591
aF4.006442577030812
aF4.068347338935574
aF4.141456582633054
aF4.157422969187675
aF4.365266106442577
aF4.215966386554622
aF4.243697478991597
aF4.387114845938376
aF4.239495798319328
aF4.1417366946778715
aF3.899439775910364
aF4.1406162464986
aF4.476190476190476
aF4.292436974789916
aF4.13109243697479
aF4.099159663865546
aF4.305602240896358
aF3.973109243697479
aF3.9448179271708685
a.